target datalayout = "e-m:e-p270:32:32-p271:32:32-p272:64:64-i64:64-i128:128-f80:128-n8:16:32:64-S128"
target triple = "x86_64-pc-linux-gnu"

@.str = private unnamed_addr constant [39 x i8] c"cannot create state: not enough memory\00", align 1
@progname = internal global ptr @.str.4, align 8
@.str.42 = private unnamed_addr constant [29 x i8] c"(error message not a string)\00", align 1

; Function Attrs: nounwind uwtable
define internal i32 @report(ptr noundef %0, i32 noundef %1) #0 {
  %3 = alloca ptr, align 8
  %4 = alloca i32, align 4
  %5 = alloca ptr, align 8
  store ptr %0, ptr %3, align 8, !tbaa !11
  store i32 %1, ptr %4, align 4, !tbaa !4
  %6 = load i32, ptr %4, align 4, !tbaa !4
  %7 = icmp ne i32 %6, 0
  br i1 %7, label %8, label %18

8:                                                ; preds = %2
  call void @llvm.lifetime.start.p0(i64 8, ptr %5) #5
  %9 = load ptr, ptr %3, align 8, !tbaa !11
  %10 = call ptr @lua_tolstring(ptr noundef %9, i32 noundef -1, ptr noundef null)
  store ptr %10, ptr %5, align 8, !tbaa !13
  %11 = load ptr, ptr %5, align 8, !tbaa !13
  %12 = icmp eq ptr %11, null
  br i1 %12, label %13, label %14

13:                                               ; preds = %8
  store ptr @.str.42, ptr %5, align 8, !tbaa !13
  br label %14

14:                                               ; preds = %13, %8
  %15 = load ptr, ptr @progname, align 8, !tbaa !13
  %16 = load ptr, ptr %5, align 8, !tbaa !13
  call void @l_message(ptr noundef %15, ptr noundef %16)
  %17 = load ptr, ptr %3, align 8, !tbaa !11
  call void @lua_settop(ptr noundef %17, i32 noundef -2)
  call void @llvm.lifetime.end.p0(i64 8, ptr %5) #5
  br label %18

18:                                               ; preds = %14, %2
  %19 = load i32, ptr %4, align 4, !tbaa !4
  ret i32 %19
}

; Function Attrs: nounwind uwtable
define dso_local i32 @main(i32 noundef %0, ptr noundef %1) #0 {
  %3 = alloca i32, align 4
  %4 = alloca i32, align 4
  %5 = alloca ptr, align 8
  %6 = alloca i32, align 4
  %7 = alloca i32, align 4
  %8 = alloca ptr, align 8
  %9 = alloca i32, align 4
  store i32 0, ptr %3, align 4
  store i32 %0, ptr %4, align 4, !tbaa !4
  store ptr %1, ptr %5, align 8, !tbaa !8
  call void @llvm.lifetime.start.p0(i64 4, ptr %6) #5
  call void @llvm.lifetime.start.p0(i64 4, ptr %7) #5
  call void @llvm.lifetime.start.p0(i64 8, ptr %8) #5
  %10 = call ptr @luaL_newstate()
  store ptr %10, ptr %8, align 8, !tbaa !11
  %11 = load ptr, ptr %8, align 8, !tbaa !11
  %12 = icmp eq ptr %11, null
  br i1 %12, label %13, label %17

13:                                               ; preds = %2
  %14 = load ptr, ptr %5, align 8, !tbaa !8
  %15 = getelementptr inbounds ptr, ptr %14, i64 0
  %16 = load ptr, ptr %15, align 8, !tbaa !13
  call void @l_message(ptr noundef %16, ptr noundef @.str)
  store i32 1, ptr %3, align 4
  store i32 1, ptr %9, align 4
  br label %42

17:                                               ; preds = %2
  %18 = load ptr, ptr %8, align 8, !tbaa !11
  %19 = call i32 (ptr, i32, ...) @lua_gc(ptr noundef %18, i32 noundef 0)
  %20 = load ptr, ptr %8, align 8, !tbaa !11
  call void @lua_pushcclosure(ptr noundef %20, ptr noundef @pmain, i32 noundef 0)
  %21 = load ptr, ptr %8, align 8, !tbaa !11
  %22 = load i32, ptr %4, align 4, !tbaa !4
  %23 = sext i32 %22 to i64
  call void @lua_pushinteger(ptr noundef %21, i64 noundef %23)
  %24 = load ptr, ptr %8, align 8, !tbaa !11
  %25 = load ptr, ptr %5, align 8, !tbaa !8
  call void @lua_pushlightuserdata(ptr noundef %24, ptr noundef %25)
  %26 = load ptr, ptr %8, align 8, !tbaa !11
  %27 = call i32 @lua_pcallk(ptr noundef %26, i32 noundef 2, i32 noundef 1, i32 noundef 0, i64 noundef 0, ptr noundef null)
  store i32 %27, ptr %6, align 4, !tbaa !4
  %28 = load ptr, ptr %8, align 8, !tbaa !11
  %29 = call i32 @lua_toboolean(ptr noundef %28, i32 noundef -1)
  store i32 %29, ptr %7, align 4, !tbaa !4
  %30 = load ptr, ptr %8, align 8, !tbaa !11
  %31 = load i32, ptr %6, align 4, !tbaa !4
  %32 = call i32 @report(ptr noundef %30, i32 noundef %31)
  %33 = load ptr, ptr %8, align 8, !tbaa !11
  call void @lua_close(ptr noundef %33)
  %34 = load i32, ptr %7, align 4, !tbaa !4
  %35 = icmp ne i32 %34, 0
  br i1 %35, label %36, label %39

36:                                               ; preds = %17
  %37 = load i32, ptr %6, align 4, !tbaa !4
  %38 = icmp eq i32 %37, 0
  br label %39

39:                                               ; preds = %36, %17
  %40 = phi i1 [ false, %17 ], [ %38, %36 ]
  %41 = select i1 %40, i32 0, i32 1
  store i32 %41, ptr %3, align 4
  store i32 1, ptr %9, align 4
  br label %42

42:                                               ; preds = %39, %13
  call void @llvm.lifetime.end.p0(i64 8, ptr %8) #5
  call void @llvm.lifetime.end.p0(i64 4, ptr %7) #5
  call void @llvm.lifetime.end.p0(i64 4, ptr %6) #5
  %43 = load i32, ptr %3, align 4
  ret i32 %43
}