; Function Attrs: nounwind uwtable
define dso_local range(i32 0, 2) i32 @main(i32 noundef %0, ptr noundef %1) local_unnamed_addr #0 {
  %3 = tail call ptr @luaL_newstate() #10
  %4 = icmp eq ptr %3, null
  br i1 %4, label %5, label %7

5:                                                ; preds = %2
  %6 = load ptr, ptr %1, align 8, !tbaa !4
  tail call fastcc void @l_message(ptr noundef %6, ptr noundef nonnull @.str)
  br label %19

7:                                                ; preds = %2
  %8 = tail call i32 (ptr, i32, ...) @lua_gc(ptr noundef nonnull %3, i32 noundef 0) #10
  tail call void @lua_pushcclosure(ptr noundef nonnull %3, ptr noundef nonnull @pmain, i32 noundef 0) #10
  %9 = sext i32 %0 to i64
  tail call void @lua_pushinteger(ptr noundef nonnull %3, i64 noundef %9) #10
  tail call void @lua_pushlightuserdata(ptr noundef nonnull %3, ptr noundef %1) #10
  %10 = tail call i32 @lua_pcallk(ptr noundef nonnull %3, i32 noundef 2, i32 noundef 1, i32 noundef 0, i64 noundef 0, ptr noundef null) #10
  %11 = tail call i32 @lua_toboolean(ptr noundef nonnull %3, i32 noundef -1) #10
  %.not.i = icmp eq i32 %10, 0
  br i1 %.not.i, label %report.exit, label %12

12:                                               ; preds = %7
  %13 = tail call ptr @lua_tolstring(ptr noundef nonnull %3, i32 noundef -1, ptr noundef null) #10
  %14 = icmp eq ptr %13, null
  %spec.store.select.i = select i1 %14, ptr @.str.42, ptr %13
  %15 = load ptr, ptr @progname, align 8, !tbaa !4
  tail call fastcc void @l_message(ptr noundef %15, ptr noundef nonnull %spec.store.select.i)
  tail call void @lua_settop(ptr noundef nonnull %3, i32 noundef -2) #10
  br label %report.exit

report.exit:                                      ; preds = %7, %12
  tail call void @lua_close(ptr noundef nonnull %3) #10
  %16 = icmp eq i32 %11, 0
  %17 = icmp ne i32 %10, 0
  %.not17 = select i1 %16, i1 true, i1 %17
  %18 = zext i1 %.not17 to i32
  br label %19

19:                                               ; preds = %report.exit, %5
  %.0 = phi i32 [ 1, %5 ], [ %18, %report.exit ]
  ret i32 %.0
}